target datalayout = "e-m:e-p270:32:32-p271:32:32-p272:64:64-i64:64-i128:128-f80:128-n8:16:32:64-S128"
target triple = "x86_64-pc-linux-gnu"

%struct._packet_info = type { ptr, ptr, i32, i32, %struct.nstime_t, %struct.nstime_t, %struct.nstime_t, i32, ptr, ptr, ptr, ptr, %struct._address, %struct._address, %struct._address, %struct._address, %struct._address, %struct._address, i32, ptr, i32, %struct.anon, i32, i32, i32, i32, ptr, i32, ptr, ptr, i16, i16, i32, i32, i16, i32, i32, ptr, ptr, ptr, i8, i8, i16, i16, i16, i32, i16, i16, ptr, ptr, ptr, ptr, ptr, i32 }
%struct.nstime_t = type { i64, i32 }
%struct._address = type { i32, i32, ptr, ptr }
%struct.anon = type { i8, [3 x i8] }

@hf_ubx_rxm_rawx = internal global i32 0, align 4
@.str.456 = private unnamed_addr constant [13 x i8] c"UBX-RXM-RAWX\00", align 1
@hf_ubx_rxm_rawx_rcvtow = internal global i32 0, align 4
@hf_ubx_rxm_rawx_week = internal global i32 0, align 4
@hf_ubx_rxm_rawx_leaps = internal global i32 0, align 4
@hf_ubx_rxm_rawx_nummeas = internal global i32 0, align 4
@hf_ubx_rxm_rawx_recstat = internal global i32 0, align 4
@hf_ubx_rxm_rawx_version = internal global i32 0, align 4
@hf_ubx_rxm_rawx_reserved1 = internal global i32 0, align 4
@hf_ubx_rxm_rawx_prmes = internal global i32 0, align 4
@hf_ubx_rxm_rawx_cpmes = internal global i32 0, align 4
@hf_ubx_rxm_rawx_domes = internal global i32 0, align 4
@hf_ubx_rxm_rawx_gnssid = internal global i32 0, align 4
@hf_ubx_rxm_rawx_svid = internal global i32 0, align 4
@hf_ubx_rxm_rawx_sigid = internal global i32 0, align 4
@hf_ubx_rxm_rawx_freqid = internal global i32 0, align 4
@hf_ubx_rxm_rawx_locktime = internal global i32 0, align 4
@hf_ubx_rxm_rawx_cn0 = internal global i32 0, align 4
@hf_ubx_rxm_rawx_prstdev = internal global i32 0, align 4
@hf_ubx_rxm_rawx_cpstdev = internal global i32 0, align 4
@hf_ubx_rxm_rawx_dostdev = internal global i32 0, align 4
@hf_ubx_rxm_rawx_trkstat = internal global i32 0, align 4
@hf_ubx_rxm_rawx_reserved2 = internal global i32 0, align 4
@ett_ubx_rxm_rawx = internal global i32 0, align 4
@ett_ubx_rxm_rawx_recstat = internal global i32 0, align 4
@ett_ubx_rxm_rawx_trkstat = internal global i32 0, align 4
@ett_ubx_rxm_rawx_meas = internal global [255 x i32] zeroinitializer, align 16
@.str.758 = private unnamed_addr constant [16 x i8] c"Unknown GNSS ID\00", align 1
@.str.764 = private unnamed_addr constant [33 x i8] c"%-7s / SV ID %3d / C/N0 %d dB-Hz\00", align 1
@ubx_rxm_rawx_recstat_fields = internal constant [3 x ptr] [ptr @hf_ubx_rxm_rawx_recstat_leapsec, ptr @hf_ubx_rxm_rawx_recstat_clkreset, ptr null], align 16
@ubx_rxm_rawx_trkstat_fields = internal constant [5 x ptr] [ptr @hf_ubx_rxm_rawx_trkstat_prvalid, ptr @hf_ubx_rxm_rawx_trkstat_cpvalid, ptr @hf_ubx_rxm_rawx_trkstat_halfcyc, ptr @hf_ubx_rxm_rawx_trkstat_subhalfcyc, ptr null], align 16

; Function Attrs: nounwind uwtable
define internal i32 @dissect_ubx_rxm_rawx(ptr noundef %0, ptr noundef %1, ptr noundef %2, ptr noundef %3) #0 {
  %5 = alloca ptr, align 8
  %6 = alloca ptr, align 8
  %7 = alloca ptr, align 8
  %8 = alloca ptr, align 8
  %9 = alloca i32, align 4
  %10 = alloca i32, align 4
  %11 = alloca ptr, align 8
  %12 = alloca ptr, align 8
  %13 = alloca i8, align 1
  %14 = alloca i8, align 1
  %15 = alloca i8, align 1
  %16 = alloca ptr, align 8
  store ptr %0, ptr %5, align 8
  store ptr %1, ptr %6, align 8
  store ptr %2, ptr %7, align 8
  store ptr %3, ptr %8, align 8
  %17 = load ptr, ptr %6, align 8
  %18 = getelementptr inbounds %struct._packet_info, ptr %17, i32 0, i32 1
  %19 = load ptr, ptr %18, align 8
  call void @col_set_str(ptr noundef %19, i32 noundef 34, ptr noundef @.str.456)
  %20 = load ptr, ptr %6, align 8
  %21 = getelementptr inbounds %struct._packet_info, ptr %20, i32 0, i32 1
  %22 = load ptr, ptr %21, align 8
  call void @col_clear(ptr noundef %22, i32 noundef 25)
  %23 = load ptr, ptr %5, align 8
  %24 = call zeroext i8 @tvb_get_guint8(ptr noundef %23, i32 noundef 11)
  %25 = zext i8 %24 to i32
  store i32 %25, ptr %10, align 4
  %26 = load ptr, ptr %7, align 8
  %27 = load i32, ptr @hf_ubx_rxm_rawx, align 4
  %28 = load ptr, ptr %5, align 8
  %29 = load i32, ptr %10, align 4
  %30 = mul i32 %29, 32
  %31 = add i32 16, %30
  %32 = call ptr @proto_tree_add_item(ptr noundef %26, i32 noundef %27, ptr noundef %28, i32 noundef 0, i32 noundef %31, i32 noundef 0)
  store ptr %32, ptr %11, align 8
  %33 = load ptr, ptr %11, align 8
  %34 = load i32, ptr @ett_ubx_rxm_rawx, align 4
  %35 = call ptr @proto_item_add_subtree(ptr noundef %33, i32 noundef %34)
  store ptr %35, ptr %12, align 8
  %36 = load ptr, ptr %12, align 8
  %37 = load i32, ptr @hf_ubx_rxm_rawx_rcvtow, align 4
  %38 = load ptr, ptr %5, align 8
  %39 = call ptr @proto_tree_add_item(ptr noundef %36, i32 noundef %37, ptr noundef %38, i32 noundef 0, i32 noundef 8, i32 noundef -2147483648)
  %40 = load ptr, ptr %12, align 8
  %41 = load i32, ptr @hf_ubx_rxm_rawx_week, align 4
  %42 = load ptr, ptr %5, align 8
  %43 = call ptr @proto_tree_add_item(ptr noundef %40, i32 noundef %41, ptr noundef %42, i32 noundef 8, i32 noundef 2, i32 noundef -2147483648)
  %44 = load ptr, ptr %12, align 8
  %45 = load i32, ptr @hf_ubx_rxm_rawx_leaps, align 4
  %46 = load ptr, ptr %5, align 8
  %47 = call ptr @proto_tree_add_item(ptr noundef %44, i32 noundef %45, ptr noundef %46, i32 noundef 10, i32 noundef 1, i32 noundef 0)
  %48 = load ptr, ptr %12, align 8
  %49 = load i32, ptr @hf_ubx_rxm_rawx_nummeas, align 4
  %50 = load ptr, ptr %5, align 8
  %51 = call ptr @proto_tree_add_item(ptr noundef %48, i32 noundef %49, ptr noundef %50, i32 noundef 11, i32 noundef 1, i32 noundef 0)
  %52 = load ptr, ptr %12, align 8
  %53 = load ptr, ptr %5, align 8
  %54 = load i32, ptr @hf_ubx_rxm_rawx_recstat, align 4
  %55 = load i32, ptr @ett_ubx_rxm_rawx_recstat, align 4
  %56 = call ptr @proto_tree_add_bitmask(ptr noundef %52, ptr noundef %53, i32 noundef 12, i32 noundef %54, i32 noundef %55, ptr noundef @ubx_rxm_rawx_recstat_fields, i32 noundef 0)
  %57 = load ptr, ptr %12, align 8
  %58 = load i32, ptr @hf_ubx_rxm_rawx_version, align 4
  %59 = load ptr, ptr %5, align 8
  %60 = call ptr @proto_tree_add_item(ptr noundef %57, i32 noundef %58, ptr noundef %59, i32 noundef 13, i32 noundef 1, i32 noundef 0)
  %61 = load ptr, ptr %12, align 8
  %62 = load i32, ptr @hf_ubx_rxm_rawx_reserved1, align 4
  %63 = load ptr, ptr %5, align 8
  %64 = call ptr @proto_tree_add_item(ptr noundef %61, i32 noundef %62, ptr noundef %63, i32 noundef 14, i32 noundef 2, i32 noundef -2147483648)
  store i32 0, ptr %9, align 4
  br label %65

65:                                               ; preds = %198, %4
  %66 = load i32, ptr %9, align 4
  %67 = load i32, ptr %10, align 4
  %68 = icmp ult i32 %66, %67
  br i1 %68, label %69, label %201

69:                                               ; preds = %65
  %70 = load ptr, ptr %5, align 8
  %71 = load i32, ptr %9, align 4
  %72 = mul i32 32, %71
  %73 = add i32 36, %72
  %74 = call zeroext i8 @tvb_get_guint8(ptr noundef %70, i32 noundef %73)
  store i8 %74, ptr %13, align 1
  %75 = load ptr, ptr %5, align 8
  %76 = load i32, ptr %9, align 4
  %77 = mul i32 32, %76
  %78 = add i32 37, %77
  %79 = call zeroext i8 @tvb_get_guint8(ptr noundef %75, i32 noundef %78)
  store i8 %79, ptr %14, align 1
  %80 = load ptr, ptr %5, align 8
  %81 = load i32, ptr %9, align 4
  %82 = mul i32 32, %81
  %83 = add i32 42, %82
  %84 = call zeroext i8 @tvb_get_guint8(ptr noundef %80, i32 noundef %83)
  store i8 %84, ptr %15, align 1
  %85 = load ptr, ptr %12, align 8
  %86 = load ptr, ptr %5, align 8
  %87 = load i32, ptr %9, align 4
  %88 = mul i32 32, %87
  %89 = add i32 16, %88
  %90 = load i32, ptr %9, align 4
  %91 = zext i32 %90 to i64
  %92 = getelementptr [255 x i32], ptr @ett_ubx_rxm_rawx_meas, i64 0, i64 %91
  %93 = load i32, ptr %92, align 4
  %94 = load i8, ptr %13, align 1
  %95 = zext i8 %94 to i32
  %96 = call ptr @val_to_str_const(i32 noundef %95, ptr noundef @UBX_GNSS_ID, ptr noundef @.str.758)
  %97 = load i8, ptr %14, align 1
  %98 = zext i8 %97 to i32
  %99 = load i8, ptr %15, align 1
  %100 = zext i8 %99 to i32
  %101 = call ptr (ptr, ptr, i32, i32, i32, ptr, ptr, ...) @proto_tree_add_subtree_format(ptr noundef %85, ptr noundef %86, i32 noundef %89, i32 noundef 32, i32 noundef %93, ptr noundef null, ptr noundef @.str.764, ptr noundef %96, i32 noundef %98, i32 noundef %100)
  store ptr %101, ptr %16, align 8
  %102 = load ptr, ptr %16, align 8
  %103 = load i32, ptr @hf_ubx_rxm_rawx_prmes, align 4
  %104 = load ptr, ptr %5, align 8
  %105 = load i32, ptr %9, align 4
  %106 = mul i32 32, %105
  %107 = add i32 16, %106
  %108 = call ptr @proto_tree_add_item(ptr noundef %102, i32 noundef %103, ptr noundef %104, i32 noundef %107, i32 noundef 8, i32 noundef -2147483648)
  %109 = load ptr, ptr %16, align 8
  %110 = load i32, ptr @hf_ubx_rxm_rawx_cpmes, align 4
  %111 = load ptr, ptr %5, align 8
  %112 = load i32, ptr %9, align 4
  %113 = mul i32 32, %112
  %114 = add i32 24, %113
  %115 = call ptr @proto_tree_add_item(ptr noundef %109, i32 noundef %110, ptr noundef %111, i32 noundef %114, i32 noundef 8, i32 noundef -2147483648)
  %116 = load ptr, ptr %16, align 8
  %117 = load i32, ptr @hf_ubx_rxm_rawx_domes, align 4
  %118 = load ptr, ptr %5, align 8
  %119 = load i32, ptr %9, align 4
  %120 = mul i32 32, %119
  %121 = add i32 32, %120
  %122 = call ptr @proto_tree_add_item(ptr noundef %116, i32 noundef %117, ptr noundef %118, i32 noundef %121, i32 noundef 4, i32 noundef -2147483648)
  %123 = load ptr, ptr %16, align 8
  %124 = load i32, ptr @hf_ubx_rxm_rawx_gnssid, align 4
  %125 = load ptr, ptr %5, align 8
  %126 = load i32, ptr %9, align 4
  %127 = mul i32 32, %126
  %128 = add i32 36, %127
  %129 = call ptr @proto_tree_add_item(ptr noundef %123, i32 noundef %124, ptr noundef %125, i32 noundef %128, i32 noundef 1, i32 noundef 0)
  %130 = load ptr, ptr %16, align 8
  %131 = load i32, ptr @hf_ubx_rxm_rawx_svid, align 4
  %132 = load ptr, ptr %5, align 8
  %133 = load i32, ptr %9, align 4
  %134 = mul i32 32, %133
  %135 = add i32 37, %134
  %136 = call ptr @proto_tree_add_item(ptr noundef %130, i32 noundef %131, ptr noundef %132, i32 noundef %135, i32 noundef 1, i32 noundef 0)
  %137 = load ptr, ptr %16, align 8
  %138 = load i32, ptr @hf_ubx_rxm_rawx_sigid, align 4
  %139 = load ptr, ptr %5, align 8
  %140 = load i32, ptr %9, align 4
  %141 = mul i32 32, %140
  %142 = add i32 38, %141
  %143 = call ptr @proto_tree_add_item(ptr noundef %137, i32 noundef %138, ptr noundef %139, i32 noundef %142, i32 noundef 1, i32 noundef 0)
  %144 = load ptr, ptr %16, align 8
  %145 = load i32, ptr @hf_ubx_rxm_rawx_freqid, align 4
  %146 = load ptr, ptr %5, align 8
  %147 = load i32, ptr %9, align 4
  %148 = mul i32 32, %147
  %149 = add i32 39, %148
  %150 = call ptr @proto_tree_add_item(ptr noundef %144, i32 noundef %145, ptr noundef %146, i32 noundef %149, i32 noundef 1, i32 noundef 0)
  %151 = load ptr, ptr %16, align 8
  %152 = load i32, ptr @hf_ubx_rxm_rawx_locktime, align 4
  %153 = load ptr, ptr %5, align 8
  %154 = load i32, ptr %9, align 4
  %155 = mul i32 32, %154
  %156 = add i32 40, %155
  %157 = call ptr @proto_tree_add_item(ptr noundef %151, i32 noundef %152, ptr noundef %153, i32 noundef %156, i32 noundef 2, i32 noundef -2147483648)
  %158 = load ptr, ptr %16, align 8
  %159 = load i32, ptr @hf_ubx_rxm_rawx_cn0, align 4
  %160 = load ptr, ptr %5, align 8
  %161 = load i32, ptr %9, align 4
  %162 = mul i32 32, %161
  %163 = add i32 42, %162
  %164 = call ptr @proto_tree_add_item(ptr noundef %158, i32 noundef %159, ptr noundef %160, i32 noundef %163, i32 noundef 1, i32 noundef 0)
  %165 = load ptr, ptr %16, align 8
  %166 = load i32, ptr @hf_ubx_rxm_rawx_prstdev, align 4
  %167 = load ptr, ptr %5, align 8
  %168 = load i32, ptr %9, align 4
  %169 = mul i32 32, %168
  %170 = add i32 43, %169
  %171 = call ptr @proto_tree_add_item(ptr noundef %165, i32 noundef %166, ptr noundef %167, i32 noundef %170, i32 noundef 1, i32 noundef 0)
  %172 = load ptr, ptr %16, align 8
  %173 = load i32, ptr @hf_ubx_rxm_rawx_cpstdev, align 4
  %174 = load ptr, ptr %5, align 8
  %175 = load i32, ptr %9, align 4
  %176 = mul i32 32, %175
  %177 = add i32 44, %176
  %178 = call ptr @proto_tree_add_item(ptr noundef %172, i32 noundef %173, ptr noundef %174, i32 noundef %177, i32 noundef 1, i32 noundef 0)
  %179 = load ptr, ptr %16, align 8
  %180 = load i32, ptr @hf_ubx_rxm_rawx_dostdev, align 4
  %181 = load ptr, ptr %5, align 8
  %182 = load i32, ptr %9, align 4
  %183 = mul i32 32, %182
  %184 = add i32 45, %183
  %185 = call ptr @proto_tree_add_item(ptr noundef %179, i32 noundef %180, ptr noundef %181, i32 noundef %184, i32 noundef 1, i32 noundef 0)
  %186 = load ptr, ptr %16, align 8
  %187 = load ptr, ptr %5, align 8
  %188 = load i32, ptr @hf_ubx_rxm_rawx_trkstat, align 4
  %189 = load i32, ptr @ett_ubx_rxm_rawx_trkstat, align 4
  %190 = call ptr @proto_tree_add_bitmask(ptr noundef %186, ptr noundef %187, i32 noundef 46, i32 noundef %188, i32 noundef %189, ptr noundef @ubx_rxm_rawx_trkstat_fields, i32 noundef 0)
  %191 = load ptr, ptr %16, align 8
  %192 = load i32, ptr @hf_ubx_rxm_rawx_reserved2, align 4
  %193 = load ptr, ptr %5, align 8
  %194 = load i32, ptr %9, align 4
  %195 = mul i32 32, %194
  %196 = add i32 47, %195
  %197 = call ptr @proto_tree_add_item(ptr noundef %191, i32 noundef %192, ptr noundef %193, i32 noundef %196, i32 noundef 1, i32 noundef 0)
  br label %198

198:                                              ; preds = %69
  %199 = load i32, ptr %9, align 4
  %200 = add i32 %199, 1
  store i32 %200, ptr %9, align 4
  br label %65, !llvm.loop !15

201:                                              ; preds = %65
  %202 = load ptr, ptr %5, align 8
  %203 = call i32 @tvb_captured_length(ptr noundef %202)
  ret i32 %203
}