; Function Attrs: nounwind uwtable
define internal i32 @dissect_ubx_rxm_rawx(ptr noundef %0, ptr noundef readonly captures(none) %1, ptr noundef %2, ptr readnone captures(none) %3) #0 {
  %5 = getelementptr inbounds nuw i8, ptr %1, i64 8
  %6 = load ptr, ptr %5, align 8
  tail call void @col_set_str(ptr noundef %6, i32 noundef 34, ptr noundef nonnull @.str.456) #5
  %7 = load ptr, ptr %5, align 8
  tail call void @col_clear(ptr noundef %7, i32 noundef 25) #5
  %8 = tail call zeroext i8 @tvb_get_guint8(ptr noundef %0, i32 noundef 11) #5
  %9 = zext i8 %8 to i32
  %10 = load i32, ptr @hf_ubx_rxm_rawx, align 4
  %11 = shl nuw nsw i32 %9, 5
  %12 = or disjoint i32 %11, 16
  %13 = tail call ptr @proto_tree_add_item(ptr noundef %2, i32 noundef %10, ptr noundef %0, i32 noundef 0, i32 noundef %12, i32 noundef 0) #5
  %14 = load i32, ptr @ett_ubx_rxm_rawx, align 4
  %15 = tail call ptr @proto_item_add_subtree(ptr noundef %13, i32 noundef %14) #5
  %16 = load i32, ptr @hf_ubx_rxm_rawx_rcvtow, align 4
  %17 = tail call ptr @proto_tree_add_item(ptr noundef %15, i32 noundef %16, ptr noundef %0, i32 noundef 0, i32 noundef 8, i32 noundef -2147483648) #5
  %18 = load i32, ptr @hf_ubx_rxm_rawx_week, align 4
  %19 = tail call ptr @proto_tree_add_item(ptr noundef %15, i32 noundef %18, ptr noundef %0, i32 noundef 8, i32 noundef 2, i32 noundef -2147483648) #5
  %20 = load i32, ptr @hf_ubx_rxm_rawx_leaps, align 4
  %21 = tail call ptr @proto_tree_add_item(ptr noundef %15, i32 noundef %20, ptr noundef %0, i32 noundef 10, i32 noundef 1, i32 noundef 0) #5
  %22 = load i32, ptr @hf_ubx_rxm_rawx_nummeas, align 4
  %23 = tail call ptr @proto_tree_add_item(ptr noundef %15, i32 noundef %22, ptr noundef %0, i32 noundef 11, i32 noundef 1, i32 noundef 0) #5
  %24 = load i32, ptr @hf_ubx_rxm_rawx_recstat, align 4
  %25 = load i32, ptr @ett_ubx_rxm_rawx_recstat, align 4
  %26 = tail call ptr @proto_tree_add_bitmask(ptr noundef %15, ptr noundef %0, i32 noundef 12, i32 noundef %24, i32 noundef %25, ptr noundef nonnull @ubx_rxm_rawx_recstat_fields, i32 noundef 0) #5
  %27 = load i32, ptr @hf_ubx_rxm_rawx_version, align 4
  %28 = tail call ptr @proto_tree_add_item(ptr noundef %15, i32 noundef %27, ptr noundef %0, i32 noundef 13, i32 noundef 1, i32 noundef 0) #5
  %29 = load i32, ptr @hf_ubx_rxm_rawx_reserved1, align 4
  %30 = tail call ptr @proto_tree_add_item(ptr noundef %15, i32 noundef %29, ptr noundef %0, i32 noundef 14, i32 noundef 2, i32 noundef -2147483648) #5
  %.not = icmp eq i8 %8, 0
  br i1 %.not, label %._crit_edge, label %.lr.ph.preheader

.lr.ph.preheader:                                 ; preds = %4
  %wide.trip.count = zext i8 %8 to i64
  br label %.lr.ph

.lr.ph:                                           ; preds = %.lr.ph.preheader, %.lr.ph
  %indvars.iv = phi i64 [ 0, %.lr.ph.preheader ], [ %indvars.iv.next, %.lr.ph ]
  %31 = shl nuw nsw i64 %indvars.iv, 5
  %32 = trunc i64 %31 to i32
  %33 = add i32 %32, 36
  %34 = tail call zeroext i8 @tvb_get_guint8(ptr noundef %0, i32 noundef %33) #5
  %35 = trunc i64 %31 to i32
  %36 = add i32 %35, 37
  %37 = tail call zeroext i8 @tvb_get_guint8(ptr noundef %0, i32 noundef %36) #5
  %38 = trunc i64 %31 to i32
  %39 = add i32 %38, 42
  %40 = tail call zeroext i8 @tvb_get_guint8(ptr noundef %0, i32 noundef %39) #5
  %41 = getelementptr [255 x i32], ptr @ett_ubx_rxm_rawx_meas, i64 0, i64 %indvars.iv
  %42 = load i32, ptr %41, align 4
  %43 = zext i8 %34 to i32
  %44 = tail call ptr @val_to_str_const(i32 noundef %43, ptr noundef nonnull @UBX_GNSS_ID, ptr noundef nonnull @.str.758) #5
  %45 = zext i8 %37 to i32
  %46 = zext i8 %40 to i32
  %47 = trunc i64 %31 to i32
  %48 = or disjoint i32 %47, 16
  %49 = tail call ptr (ptr, ptr, i32, i32, i32, ptr, ptr, ...) @proto_tree_add_subtree_format(ptr noundef %15, ptr noundef %0, i32 noundef %48, i32 noundef 32, i32 noundef %42, ptr noundef null, ptr noundef nonnull @.str.764, ptr noundef %44, i32 noundef %45, i32 noundef %46) #5
  %50 = load i32, ptr @hf_ubx_rxm_rawx_prmes, align 4
  %51 = tail call ptr @proto_tree_add_item(ptr noundef %49, i32 noundef %50, ptr noundef %0, i32 noundef %48, i32 noundef 8, i32 noundef -2147483648) #5
  %52 = load i32, ptr @hf_ubx_rxm_rawx_cpmes, align 4
  %53 = trunc i64 %31 to i32
  %54 = or disjoint i32 %53, 24
  %55 = tail call ptr @proto_tree_add_item(ptr noundef %49, i32 noundef %52, ptr noundef %0, i32 noundef %54, i32 noundef 8, i32 noundef -2147483648) #5
  %56 = load i32, ptr @hf_ubx_rxm_rawx_domes, align 4
  %57 = trunc i64 %31 to i32
  %58 = add i32 %57, 32
  %59 = tail call ptr @proto_tree_add_item(ptr noundef %49, i32 noundef %56, ptr noundef %0, i32 noundef %58, i32 noundef 4, i32 noundef -2147483648) #5
  %60 = load i32, ptr @hf_ubx_rxm_rawx_gnssid, align 4
  %61 = tail call ptr @proto_tree_add_item(ptr noundef %49, i32 noundef %60, ptr noundef %0, i32 noundef %33, i32 noundef 1, i32 noundef 0) #5
  %62 = load i32, ptr @hf_ubx_rxm_rawx_svid, align 4
  %63 = tail call ptr @proto_tree_add_item(ptr noundef %49, i32 noundef %62, ptr noundef %0, i32 noundef %36, i32 noundef 1, i32 noundef 0) #5
  %64 = load i32, ptr @hf_ubx_rxm_rawx_sigid, align 4
  %65 = trunc i64 %31 to i32
  %66 = add i32 %65, 38
  %67 = tail call ptr @proto_tree_add_item(ptr noundef %49, i32 noundef %64, ptr noundef %0, i32 noundef %66, i32 noundef 1, i32 noundef 0) #5
  %68 = load i32, ptr @hf_ubx_rxm_rawx_freqid, align 4
  %69 = trunc i64 %31 to i32
  %70 = add i32 %69, 39
  %71 = tail call ptr @proto_tree_add_item(ptr noundef %49, i32 noundef %68, ptr noundef %0, i32 noundef %70, i32 noundef 1, i32 noundef 0) #5
  %72 = load i32, ptr @hf_ubx_rxm_rawx_locktime, align 4
  %73 = trunc i64 %31 to i32
  %74 = add i32 %73, 40
  %75 = tail call ptr @proto_tree_add_item(ptr noundef %49, i32 noundef %72, ptr noundef %0, i32 noundef %74, i32 noundef 2, i32 noundef -2147483648) #5
  %76 = load i32, ptr @hf_ubx_rxm_rawx_cn0, align 4
  %77 = tail call ptr @proto_tree_add_item(ptr noundef %49, i32 noundef %76, ptr noundef %0, i32 noundef %39, i32 noundef 1, i32 noundef 0) #5
  %78 = load i32, ptr @hf_ubx_rxm_rawx_prstdev, align 4
  %79 = trunc i64 %31 to i32
  %80 = add i32 %79, 43
  %81 = tail call ptr @proto_tree_add_item(ptr noundef %49, i32 noundef %78, ptr noundef %0, i32 noundef %80, i32 noundef 1, i32 noundef 0) #5
  %82 = load i32, ptr @hf_ubx_rxm_rawx_cpstdev, align 4
  %83 = trunc i64 %31 to i32
  %84 = add i32 %83, 44
  %85 = tail call ptr @proto_tree_add_item(ptr noundef %49, i32 noundef %82, ptr noundef %0, i32 noundef %84, i32 noundef 1, i32 noundef 0) #5
  %86 = load i32, ptr @hf_ubx_rxm_rawx_dostdev, align 4
  %87 = trunc i64 %31 to i32
  %88 = add i32 %87, 45
  %89 = tail call ptr @proto_tree_add_item(ptr noundef %49, i32 noundef %86, ptr noundef %0, i32 noundef %88, i32 noundef 1, i32 noundef 0) #5
  %90 = load i32, ptr @hf_ubx_rxm_rawx_trkstat, align 4
  %91 = load i32, ptr @ett_ubx_rxm_rawx_trkstat, align 4
  %92 = tail call ptr @proto_tree_add_bitmask(ptr noundef %49, ptr noundef %0, i32 noundef 46, i32 noundef %90, i32 noundef %91, ptr noundef nonnull @ubx_rxm_rawx_trkstat_fields, i32 noundef 0) #5
  %93 = load i32, ptr @hf_ubx_rxm_rawx_reserved2, align 4
  %94 = trunc i64 %31 to i32
  %95 = add i32 %94, 47
  %96 = tail call ptr @proto_tree_add_item(ptr noundef %49, i32 noundef %93, ptr noundef %0, i32 noundef %95, i32 noundef 1, i32 noundef 0) #5
  %indvars.iv.next = add nuw nsw i64 %indvars.iv, 1
  %exitcond.not = icmp eq i64 %indvars.iv.next, %wide.trip.count
  br i1 %exitcond.not, label %._crit_edge, label %.lr.ph, !llvm.loop !15

._crit_edge:                                      ; preds = %.lr.ph, %4
  %97 = tail call i32 @tvb_captured_length(ptr noundef %0) #5
  ret i32 %97
}